; Function Attrs: nounwind uwtable
define dso_local void @closeDirectLogFiledes(i32 noundef %fd) local_unnamed_addr #0 {
entry:
  %0 = load ptr, ptr getelementptr inbounds (%struct.redisServer, ptr @server, i64 0, i32 250), align 8
  %1 = load i8, ptr %0, align 1
  %cmp = icmp eq i8 %1, 0
  br i1 %cmp, label %if.end, label %if.then

if.then:                                          ; preds = %entry
  %call = tail call i32 @close(i32 noundef %fd) #22
  br label %if.end

if.end:                                           ; preds = %if.then, %entry
  ret void
}